target datalayout = "e-m:e-p270:32:32-p271:32:32-p272:64:64-i64:64-i128:128-f80:128-n8:16:32:64-S128"
target triple = "x86_64-pc-linux-gnu"

%struct._GtkTreeIter = type { i32, ptr, ptr, ptr }
%struct.sview_job_info_t = type { i32, %struct._GtkTreeIter, i8, i32, ptr, ptr, i32, ptr, i32, ptr, ptr, ptr, ptr, ptr, ptr, ptr }

; Function Attrs: nounwind uwtable
define internal i32 @_sview_job_sort_aval_dec(ptr noundef %0, ptr noundef %1) #0 {
  %3 = alloca i32, align 4
  %4 = alloca ptr, align 8
  %5 = alloca ptr, align 8
  %6 = alloca ptr, align 8
  %7 = alloca ptr, align 8
  %8 = alloca i32, align 4
  %9 = alloca i32, align 4
  %10 = alloca i32, align 4
  store ptr %0, ptr %4, align 8
  store ptr %1, ptr %5, align 8
  call void @llvm.lifetime.start.p0(i64 8, ptr %6) #11
  %11 = load ptr, ptr %4, align 8
  %12 = load ptr, ptr %11, align 8
  store ptr %12, ptr %6, align 8
  call void @llvm.lifetime.start.p0(i64 8, ptr %7) #11
  %13 = load ptr, ptr %5, align 8
  %14 = load ptr, ptr %13, align 8
  store ptr %14, ptr %7, align 8
  call void @llvm.lifetime.start.p0(i64 4, ptr %8) #11
  call void @llvm.lifetime.start.p0(i64 4, ptr %9) #11
  %15 = load ptr, ptr %6, align 8
  %16 = getelementptr inbounds nuw %struct.sview_job_info_t, ptr %15, i32 0, i32 6
  %17 = load i32, ptr %16, align 8
  store i32 %17, ptr %8, align 4
  %18 = load ptr, ptr %7, align 8
  %19 = getelementptr inbounds nuw %struct.sview_job_info_t, ptr %18, i32 0, i32 6
  %20 = load i32, ptr %19, align 8
  store i32 %20, ptr %9, align 4
  %21 = load i32, ptr %8, align 4
  %22 = load i32, ptr %9, align 4
  %23 = icmp slt i32 %21, %22
  br i1 %23, label %24, label %25

24:                                               ; preds = %2
  store i32 -1, ptr %3, align 4
  store i32 1, ptr %10, align 4
  br label %59

25:                                               ; preds = %2
  %26 = load i32, ptr %8, align 4
  %27 = load i32, ptr %9, align 4
  %28 = icmp sgt i32 %26, %27
  br i1 %28, label %29, label %30

29:                                               ; preds = %25
  store i32 1, ptr %3, align 4
  store i32 1, ptr %10, align 4
  br label %59

30:                                               ; preds = %25
  br label %31

31:                                               ; preds = %30
  %32 = load ptr, ptr %6, align 8
  %33 = getelementptr inbounds nuw %struct.sview_job_info_t, ptr %32, i32 0, i32 7
  %34 = load ptr, ptr %33, align 8
  %35 = icmp ne ptr %34, null
  br i1 %35, label %36, label %58

36:                                               ; preds = %31
  %37 = load ptr, ptr %7, align 8
  %38 = getelementptr inbounds nuw %struct.sview_job_info_t, ptr %37, i32 0, i32 7
  %39 = load ptr, ptr %38, align 8
  %40 = icmp ne ptr %39, null
  br i1 %40, label %41, label %58

41:                                               ; preds = %36
  %42 = load ptr, ptr %6, align 8
  %43 = getelementptr inbounds nuw %struct.sview_job_info_t, ptr %42, i32 0, i32 7
  %44 = load ptr, ptr %43, align 8
  %45 = load ptr, ptr %7, align 8
  %46 = getelementptr inbounds nuw %struct.sview_job_info_t, ptr %45, i32 0, i32 7
  %47 = load ptr, ptr %46, align 8
  %48 = call i32 @xstrcmp(ptr noundef %44, ptr noundef %47)
  store i32 %48, ptr %8, align 4
  %49 = load i32, ptr %8, align 4
  %50 = icmp slt i32 %49, 0
  br i1 %50, label %51, label %52

51:                                               ; preds = %41
  store i32 -1, ptr %3, align 4
  store i32 1, ptr %10, align 4
  br label %59

52:                                               ; preds = %41
  %53 = load i32, ptr %8, align 4
  %54 = icmp sgt i32 %53, 0
  br i1 %54, label %55, label %56

55:                                               ; preds = %52
  store i32 1, ptr %3, align 4
  store i32 1, ptr %10, align 4
  br label %59

56:                                               ; preds = %52
  br label %57

57:                                               ; preds = %56
  br label %58

58:                                               ; preds = %57, %36, %31
  store i32 0, ptr %3, align 4
  store i32 1, ptr %10, align 4
  br label %59

59:                                               ; preds = %58, %55, %51, %29, %24
  call void @llvm.lifetime.end.p0(i64 4, ptr %9) #11
  call void @llvm.lifetime.end.p0(i64 4, ptr %8) #11
  call void @llvm.lifetime.end.p0(i64 8, ptr %7) #11
  call void @llvm.lifetime.end.p0(i64 8, ptr %6) #11
  %60 = load i32, ptr %3, align 4
  ret i32 %60
}