; Function Attrs: nounwind uwtable
define internal range(i32 -1, 2) i32 @_sview_job_sort_aval_dec(ptr noundef readonly captures(none) %0, ptr noundef readonly captures(none) %1) #0 {
  %3 = load ptr, ptr %0, align 8
  %4 = load ptr, ptr %1, align 8
  %5 = getelementptr inbounds nuw i8, ptr %3, i64 64
  %6 = load i32, ptr %5, align 8
  %7 = getelementptr inbounds nuw i8, ptr %4, i64 64
  %8 = load i32, ptr %7, align 8
  %9 = icmp slt i32 %6, %8
  br i1 %9, label %23, label %10

10:                                               ; preds = %2
  %11 = icmp sgt i32 %6, %8
  br i1 %11, label %23, label %12

12:                                               ; preds = %10
  %13 = getelementptr inbounds nuw i8, ptr %3, i64 72
  %14 = load ptr, ptr %13, align 8
  %.not = icmp eq ptr %14, null
  br i1 %.not, label %22, label %15

15:                                               ; preds = %12
  %16 = getelementptr inbounds nuw i8, ptr %4, i64 72
  %17 = load ptr, ptr %16, align 8
  %.not19 = icmp eq ptr %17, null
  br i1 %.not19, label %22, label %18

18:                                               ; preds = %15
  %19 = tail call i32 @xstrcmp(ptr noundef nonnull %14, ptr noundef nonnull %17) #16
  %20 = icmp slt i32 %19, 0
  br i1 %20, label %23, label %21

21:                                               ; preds = %18
  %.not20 = icmp eq i32 %19, 0
  br i1 %.not20, label %22, label %23

22:                                               ; preds = %21, %15, %12
  br label %23

23:                                               ; preds = %21, %18, %10, %2, %22
  %.0 = phi i32 [ 0, %22 ], [ -1, %2 ], [ 1, %10 ], [ -1, %18 ], [ 1, %21 ]
  ret i32 %.0
}